; ModuleID = 'bench/linux/original/xt_LOG.ll'
source_filename = "bench/linux/original/xt_LOG.ll"
target datalayout = "e-m:e-p270:32:32-p271:32:32-p272:64:64-i64:64-i128:128-f80:128-n8:16:32:64-S128"
target triple = "x86_64-unknown-linux-gnu"

%struct.xt_target = type { %struct.list_head, [29 x i8], i8, ptr, ptr, ptr, ptr, ptr, i32, i32, i32, i16, i16 }
%struct.list_head = type { ptr, ptr }
%struct.module = type { i32, %struct.list_head, [56 x i8], %struct.module_kobject, ptr, ptr, ptr, ptr, ptr, ptr, i32, %struct.mutex, ptr, i32, i32, ptr, ptr, i8, i8, i32, ptr, ptr, [7 x %struct.module_memory], %struct.mod_arch_specific, i64, i32, %struct.list_head, ptr, ptr, %struct.mod_kallsyms, ptr, ptr, ptr, ptr, i32, ptr, i32, i32, ptr, i32, ptr, ptr, i32, i32, ptr, ptr, i32, ptr, i32, ptr, i32, ptr, i32, i32, ptr, %struct.list_head, %struct.list_head, ptr, %struct.atomic_t }
%struct.module_kobject = type { %struct.kobject, ptr, ptr, ptr, ptr }
%struct.kobject = type { ptr, %struct.list_head, ptr, ptr, ptr, ptr, %struct.kref, i8 }
%struct.kref = type { %struct.refcount_struct }
%struct.refcount_struct = type { %struct.atomic_t }
%struct.mutex = type { %struct.atomic64_t, %struct.raw_spinlock, %struct.optimistic_spin_queue, %struct.list_head }
%struct.atomic64_t = type { i64 }
%struct.raw_spinlock = type { %struct.qspinlock }
%struct.qspinlock = type { %union.anon }
%union.anon = type { %struct.atomic_t }
%struct.optimistic_spin_queue = type { %struct.atomic_t }
%struct.module_memory = type { ptr, i32, %struct.mod_tree_node }
%struct.mod_tree_node = type { ptr, %struct.latch_tree_node }
%struct.latch_tree_node = type { [2 x %struct.rb_node] }
%struct.rb_node = type { i64, ptr, ptr }
%struct.mod_arch_specific = type { i32, ptr, ptr }
%struct.mod_kallsyms = type { ptr, i32, ptr, ptr }
%struct.atomic_t = type { i32 }
%struct.nf_loginfo = type { i8, %union.anon.3 }
%union.anon.3 = type { %struct.anon.4 }
%struct.anon.4 = type { i32, i16, i16, i16 }

@__UNIQUE_ID___addressable_init_module894 = internal global ptr @init_module, section ".init.data", align 8
@__UNIQUE_ID___addressable_cleanup_module895 = internal global ptr @cleanup_module, section ".exit.data", align 8
@__UNIQUE_ID_license896 = internal constant [12 x i8] c"license=GPL\00", section ".modinfo", align 1
@__UNIQUE_ID_author897 = internal constant [52 x i8] c"author=Netfilter Core Team <coreteam@netfilter.org>\00", section ".modinfo", align 1
@__UNIQUE_ID_author898 = internal constant [43 x i8] c"author=Jan Rekorajski <baggins@pld.org.pl>\00", section ".modinfo", align 1
@__UNIQUE_ID_description899 = internal constant [46 x i8] c"description=Xtables: IPv4/IPv6 packet logging\00", section ".modinfo", align 1
@__UNIQUE_ID_alias900 = internal constant [14 x i8] c"alias=ipt_LOG\00", section ".modinfo", align 1
@__UNIQUE_ID_alias901 = internal constant [15 x i8] c"alias=ip6t_LOG\00", section ".modinfo", align 1
@__UNIQUE_ID_softdep902 = internal constant [27 x i8] c"softdep=pre: nf_log_syslog\00", section ".modinfo", align 1
@log_tg_regs = internal global [2 x %struct.xt_target] [%struct.xt_target { %struct.list_head zeroinitializer, [29 x i8] c"LOG\00\00\00\00\00\00\00\00\00\00\00\00\00\00\00\00\00\00\00\00\00\00\00\00\00\00", i8 0, ptr @log_tg, ptr @log_tg_check, ptr @log_tg_destroy, ptr @__this_module, ptr null, i32 32, i32 0, i32 0, i16 0, i16 2 }, %struct.xt_target { %struct.list_head zeroinitializer, [29 x i8] c"LOG\00\00\00\00\00\00\00\00\00\00\00\00\00\00\00\00\00\00\00\00\00\00\00\00\00\00", i8 0, ptr @log_tg, ptr @log_tg_check, ptr @log_tg_destroy, ptr @__this_module, ptr null, i32 32, i32 0, i32 0, i16 0, i16 10 }], section ".data..read_mostly", align 16
@__this_module = external dso_local global %struct.module, align 64
@.str = private unnamed_addr constant [3 x i8] c"%s\00", align 1
@.str.1 = private unnamed_addr constant [14 x i8] c"nf_log_syslog\00", align 1
@llvm.compiler.used = appending global [9 x ptr] [ptr @__UNIQUE_ID___addressable_cleanup_module895, ptr @__UNIQUE_ID___addressable_init_module894, ptr @__UNIQUE_ID_alias900, ptr @__UNIQUE_ID_alias901, ptr @__UNIQUE_ID_author897, ptr @__UNIQUE_ID_author898, ptr @__UNIQUE_ID_description899, ptr @__UNIQUE_ID_license896, ptr @__UNIQUE_ID_softdep902], section "llvm.metadata"

; Function Attrs: cold fn_ret_thunk_extern nounwind null_pointer_is_valid optsize
define dso_local i32 @init_module() #0 section ".init.text" align 16 {
  %1 = tail call i32 @xt_register_targets(ptr noundef nonnull @log_tg_regs, i32 noundef 2) #5
  ret i32 %1
}

; Function Attrs: cold fn_ret_thunk_extern nounwind null_pointer_is_valid optsize
define dso_local void @cleanup_module() #0 section ".exit.text" align 16 {
  tail call void @xt_unregister_targets(ptr noundef nonnull @log_tg_regs, i32 noundef 2) #5
  ret void
}

; Function Attrs: null_pointer_is_valid
declare dso_local i32 @xt_register_targets(ptr noundef, i32 noundef) local_unnamed_addr #1

; Function Attrs: fn_ret_thunk_extern nounwind null_pointer_is_valid
define internal noundef i32 @log_tg(ptr noundef %0, ptr nocapture noundef readonly %1) #2 align 16 {
  %3 = alloca %struct.nf_loginfo, align 4
  %4 = getelementptr inbounds i8, ptr %1, i64 8
  %5 = load ptr, ptr %4, align 8
  %6 = getelementptr inbounds i8, ptr %1, i64 16
  %7 = load ptr, ptr %6, align 8
  %8 = getelementptr inbounds i8, ptr %7, i64 32
  %9 = load ptr, ptr %8, align 8
  call void @llvm.lifetime.start.p0(i64 16, ptr nonnull %3) #5
  call void @llvm.memset.p0.i64(ptr noundef nonnull align 4 dereferenceable(16) %3, i8 0, i64 16, i1 false)
  %10 = load i8, ptr %5, align 1
  %11 = getelementptr inbounds i8, ptr %3, i64 4
  store i8 %10, ptr %11, align 4
  %12 = getelementptr inbounds i8, ptr %5, i64 1
  %13 = load i8, ptr %12, align 1
  %14 = getelementptr inbounds i8, ptr %3, i64 5
  store i8 %13, ptr %14, align 1
  %15 = getelementptr inbounds i8, ptr %7, i64 1
  %16 = load i8, ptr %15, align 1
  %17 = load i8, ptr %7, align 8
  %18 = zext i8 %17 to i32
  %19 = getelementptr inbounds i8, ptr %7, i64 8
  %20 = load ptr, ptr %19, align 8
  %21 = getelementptr inbounds i8, ptr %7, i64 16
  %22 = load ptr, ptr %21, align 8
  %23 = getelementptr inbounds i8, ptr %5, i64 2
  call void (ptr, i8, i32, ptr, ptr, ptr, ptr, ptr, ...) @nf_log_packet(ptr noundef %9, i8 noundef zeroext %16, i32 noundef %18, ptr noundef %0, ptr noundef %20, ptr noundef %22, ptr noundef nonnull %3, ptr noundef nonnull @.str, ptr noundef %23) #5
  call void @llvm.lifetime.end.p0(i64 16, ptr nonnull %3) #5
  ret i32 -1
}

; Function Attrs: fn_ret_thunk_extern nounwind null_pointer_is_valid
define internal i32 @log_tg_check(ptr nocapture noundef readonly %0) #2 align 16 {
  %2 = getelementptr inbounds i8, ptr %0, i64 32
  %3 = load ptr, ptr %2, align 8
  %4 = getelementptr inbounds i8, ptr %0, i64 44
  %5 = load i8, ptr %4, align 4
  switch i8 %5, label %26 [
    i8 2, label %6
    i8 10, label %6
  ]

6:                                                ; preds = %1, %1
  %7 = load i8, ptr %3, align 1
  %8 = icmp ugt i8 %7, 7
  br i1 %8, label %26, label %9

9:                                                ; preds = %6
  %10 = getelementptr i8, ptr %3, i64 31
  %11 = load i8, ptr %10, align 1
  %12 = icmp eq i8 %11, 0
  br i1 %12, label %13, label %26

13:                                               ; preds = %9
  %14 = zext nneg i8 %5 to i32
  %15 = tail call i32 @nf_logger_find_get(i32 noundef %14, i32 noundef 0) #5
  %16 = icmp eq i32 %15, 0
  br i1 %16, label %26, label %17

17:                                               ; preds = %13
  %18 = getelementptr inbounds i8, ptr %0, i64 45
  %19 = load i8, ptr %18, align 1, !range !5, !noundef !6
  %20 = icmp eq i8 %19, 0
  br i1 %20, label %21, label %26

21:                                               ; preds = %17
  %22 = tail call i32 (i1, ptr, ...) @__request_module(i1 noundef zeroext true, ptr noundef nonnull @.str, ptr noundef nonnull @.str.1) #5
  %23 = load i8, ptr %4, align 4
  %24 = zext i8 %23 to i32
  %25 = tail call i32 @nf_logger_find_get(i32 noundef %24, i32 noundef 0) #5
  br label %26

26:                                               ; preds = %21, %17, %13, %9, %6, %1
  %27 = phi i32 [ -22, %1 ], [ -22, %6 ], [ -22, %9 ], [ %15, %17 ], [ %25, %21 ], [ 0, %13 ]
  ret i32 %27
}

; Function Attrs: fn_ret_thunk_extern nounwind null_pointer_is_valid
define internal void @log_tg_destroy(ptr nocapture noundef readonly %0) #2 align 16 {
  %2 = getelementptr inbounds i8, ptr %0, i64 24
  %3 = load i8, ptr %2, align 8
  %4 = zext i8 %3 to i32
  tail call void @nf_logger_put(i32 noundef %4, i32 noundef 0) #5
  ret void
}

; Function Attrs: mustprogress nocallback nofree nosync nounwind willreturn memory(argmem: readwrite)
declare void @llvm.lifetime.start.p0(i64 immarg, ptr nocapture) #3

; Function Attrs: mustprogress nocallback nofree nounwind willreturn memory(argmem: write)
declare void @llvm.memset.p0.i64(ptr nocapture writeonly, i8, i64, i1 immarg) #4

; Function Attrs: null_pointer_is_valid
declare dso_local void @nf_log_packet(ptr noundef, i8 noundef zeroext, i32 noundef, ptr noundef, ptr noundef, ptr noundef, ptr noundef, ptr noundef, ...) local_unnamed_addr #1

; Function Attrs: mustprogress nocallback nofree nosync nounwind willreturn memory(argmem: readwrite)
declare void @llvm.lifetime.end.p0(i64 immarg, ptr nocapture) #3

; Function Attrs: null_pointer_is_valid
declare dso_local i32 @nf_logger_find_get(i32 noundef, i32 noundef) local_unnamed_addr #1

; Function Attrs: null_pointer_is_valid
declare dso_local i32 @__request_module(i1 noundef zeroext, ptr noundef, ...) local_unnamed_addr #1

; Function Attrs: null_pointer_is_valid
declare dso_local void @nf_logger_put(i32 noundef, i32 noundef) local_unnamed_addr #1

; Function Attrs: null_pointer_is_valid
declare dso_local void @xt_unregister_targets(ptr noundef, i32 noundef) local_unnamed_addr #1


!llvm.module.flags = !{!0, !1, !2, !3, !4}

!0 = !{i32 1, !"wchar_size", i32 2}
!1 = !{i32 8, !"cf-protection-branch", i32 1}
!2 = !{i32 4, !"function_return_thunk_extern", i32 1}
!3 = !{i32 4, !"indirect_branch_cs_prefix", i32 1}
!4 = !{i32 4, !"SkipRaxSetup", i32 1}
!5 = !{i8 0, i8 2}
!6 = !{}
